target datalayout = "e-m:e-p270:32:32-p271:32:32-p272:64:64-i64:64-i128:128-f80:128-n8:16:32:64-S128"
target triple = "x86_64-pc-linux-gnu"

%struct.AVRational = type { i32, i32 }
%struct.AVPacket = type { ptr, i64, i64, ptr, i32, i32, i32, ptr, i32, i64, i64, ptr, ptr, %struct.AVRational }

@.str = private unnamed_addr constant [27 x i8] c"Invalid palette side data\0A\00", align 1

; Function Attrs: nounwind uwtable
define i32 @ff_get_packet_palette(ptr noundef %0, ptr noundef %1, i32 noundef %2, ptr noundef %3) #0 {
  %5 = alloca i32, align 4
  %6 = alloca ptr, align 8
  %7 = alloca ptr, align 8
  %8 = alloca i32, align 4
  %9 = alloca ptr, align 8
  %10 = alloca ptr, align 8
  %11 = alloca i64, align 8
  %12 = alloca i32, align 4
  %13 = alloca i32, align 4
  store ptr %0, ptr %6, align 8, !tbaa !4
  store ptr %1, ptr %7, align 8, !tbaa !16
  store i32 %2, ptr %8, align 4, !tbaa !14
  store ptr %3, ptr %9, align 8, !tbaa !34
  call void @llvm.lifetime.start.p0(i64 8, ptr %10) #5
  call void @llvm.lifetime.start.p0(i64 8, ptr %11) #5
  %14 = load ptr, ptr %7, align 8, !tbaa !16
  %15 = call ptr @av_packet_get_side_data(ptr noundef %14, i32 noundef 0, ptr noundef %11)
  store ptr %15, ptr %10, align 8, !tbaa !36
  %16 = load ptr, ptr %10, align 8, !tbaa !36
  %17 = icmp ne ptr %16, null
  br i1 %17, label %18, label %26

18:                                               ; preds = %4
  %19 = load i64, ptr %11, align 8, !tbaa !25
  %20 = icmp ne i64 %19, 1024
  br i1 %20, label %21, label %23

21:                                               ; preds = %18
  %22 = load ptr, ptr %6, align 8, !tbaa !4
  call void (ptr, i32, ptr, ...) @av_log(ptr noundef %22, i32 noundef 16, ptr noundef @.str)
  store i32 -1094995529, ptr %5, align 4
  store i32 1, ptr %12, align 4
  br label %58

23:                                               ; preds = %18
  %24 = load ptr, ptr %9, align 8, !tbaa !34
  %25 = load ptr, ptr %10, align 8, !tbaa !36
  call void @llvm.memcpy.p0.p0.i64(ptr align 4 %24, ptr align 1 %25, i64 1024, i1 false)
  store i32 1, ptr %5, align 4
  store i32 1, ptr %12, align 4
  br label %58

26:                                               ; preds = %4
  %27 = load i32, ptr %8, align 4, !tbaa !14
  %28 = icmp eq i32 %27, 2
  br i1 %28, label %29, label %57

29:                                               ; preds = %26
  call void @llvm.lifetime.start.p0(i64 4, ptr %13) #5
  store i32 0, ptr %13, align 4, !tbaa !14
  br label %30

30:                                               ; preds = %53, %29
  %31 = load i32, ptr %13, align 4, !tbaa !14
  %32 = icmp slt i32 %31, 256
  br i1 %32, label %34, label %33

33:                                               ; preds = %30
  store i32 2, ptr %12, align 4
  call void @llvm.lifetime.end.p0(i64 4, ptr %13) #5
  br label %56

34:                                               ; preds = %30
  %35 = load ptr, ptr %7, align 8, !tbaa !16
  %36 = getelementptr inbounds nuw %struct.AVPacket, ptr %35, i32 0, i32 3
  %37 = load ptr, ptr %36, align 8, !tbaa !31
  %38 = load ptr, ptr %7, align 8, !tbaa !16
  %39 = getelementptr inbounds nuw %struct.AVPacket, ptr %38, i32 0, i32 4
  %40 = load i32, ptr %39, align 8, !tbaa !28
  %41 = sext i32 %40 to i64
  %42 = getelementptr inbounds i8, ptr %37, i64 %41
  %43 = getelementptr inbounds i8, ptr %42, i64 -1024
  %44 = load i32, ptr %13, align 4, !tbaa !14
  %45 = mul nsw i32 %44, 4
  %46 = sext i32 %45 to i64
  %47 = getelementptr inbounds i8, ptr %43, i64 %46
  %48 = load i32, ptr %47, align 1, !tbaa !37
  %49 = load ptr, ptr %9, align 8, !tbaa !34
  %50 = load i32, ptr %13, align 4, !tbaa !14
  %51 = sext i32 %50 to i64
  %52 = getelementptr inbounds i32, ptr %49, i64 %51
  store i32 %48, ptr %52, align 4, !tbaa !14
  br label %53

53:                                               ; preds = %34
  %54 = load i32, ptr %13, align 4, !tbaa !14
  %55 = add nsw i32 %54, 1
  store i32 %55, ptr %13, align 4, !tbaa !14
  br label %30, !llvm.loop !38

56:                                               ; preds = %33
  store i32 1, ptr %5, align 4
  store i32 1, ptr %12, align 4
  br label %58

57:                                               ; preds = %26
  store i32 0, ptr %5, align 4
  store i32 1, ptr %12, align 4
  br label %58

58:                                               ; preds = %57, %56, %23, %21
  call void @llvm.lifetime.end.p0(i64 8, ptr %11) #5
  call void @llvm.lifetime.end.p0(i64 8, ptr %10) #5
  %59 = load i32, ptr %5, align 4
  ret i32 %59
}