; Function Attrs: nounwind uwtable
define range(i32 -1094995529, 2) i32 @ff_get_packet_palette(ptr noundef %0, ptr noundef %1, i32 noundef %2, ptr noundef writeonly captures(none) %3) local_unnamed_addr #0 {
  %5 = alloca i64, align 8
  call void @llvm.lifetime.start.p0(i64 8, ptr nonnull %5) #6
  %6 = call ptr @av_packet_get_side_data(ptr noundef %1, i32 noundef 0, ptr noundef nonnull %5) #6
  %.not = icmp eq ptr %6, null
  br i1 %.not, label %11, label %7

7:                                                ; preds = %4
  %8 = load i64, ptr %5, align 8, !tbaa !25
  %.not15 = icmp eq i64 %8, 1024
  br i1 %.not15, label %10, label %9

9:                                                ; preds = %7
  call void (ptr, i32, ptr, ...) @av_log(ptr noundef %0, i32 noundef 16, ptr noundef nonnull @.str) #6
  br label %.loopexit

10:                                               ; preds = %7
  call void @llvm.memcpy.p0.p0.i64(ptr noundef nonnull align 4 dereferenceable(1024) %3, ptr noundef nonnull align 1 dereferenceable(1024) %6, i64 1024, i1 false)
  br label %.loopexit

11:                                               ; preds = %4
  %12 = icmp eq i32 %2, 2
  br i1 %12, label %.preheader, label %.loopexit

.preheader:                                       ; preds = %11
  %13 = getelementptr inbounds nuw i8, ptr %1, i64 24
  %14 = load ptr, ptr %13, align 8, !tbaa !22
  %15 = getelementptr inbounds nuw i8, ptr %1, i64 32
  %invariant.gep = getelementptr i8, ptr %14, i64 -1024
  br label %16

16:                                               ; preds = %.preheader, %16
  %indvars.iv = phi i64 [ 0, %.preheader ], [ %indvars.iv.next, %16 ]
  %17 = load i32, ptr %15, align 8, !tbaa !18
  %18 = sext i32 %17 to i64
  %gep = getelementptr i8, ptr %invariant.gep, i64 %18
  %19 = shl nuw nsw i64 %indvars.iv, 2
  %20 = getelementptr inbounds nuw i8, ptr %gep, i64 %19
  %21 = load i32, ptr %20, align 1, !tbaa !26
  %22 = getelementptr inbounds nuw i32, ptr %3, i64 %indvars.iv
  store i32 %21, ptr %22, align 4, !tbaa !27
  %indvars.iv.next = add nuw nsw i64 %indvars.iv, 1
  %exitcond.not = icmp eq i64 %indvars.iv.next, 256
  br i1 %exitcond.not, label %.loopexit, label %16, !llvm.loop !28

.loopexit:                                        ; preds = %16, %11, %10, %9
  %.013 = phi i32 [ -1094995529, %9 ], [ 1, %10 ], [ 0, %11 ], [ 1, %16 ]
  call void @llvm.lifetime.end.p0(i64 8, ptr nonnull %5) #6
  ret i32 %.013
}